; Function Attrs: mustprogress uwtable
define void @_ZN7t_state8addEntryE10StateEntry(ptr noundef nonnull align 8 dereferenceable(832) %0, i32 noundef %1) local_unnamed_addr #4 align 2 {
  %3 = getelementptr inbounds i8, ptr %0, i64 4
  %4 = load i32, ptr %3, align 4
  %5 = shl nuw i32 1, %1
  %6 = or i32 %4, %5
  store i32 %6, ptr %3, align 4
  %7 = load i32, ptr %0, align 8
  %8 = and i32 %6, 128
  %.not.i.i = icmp eq i32 %8, 0
  br i1 %.not.i.i, label %12, label %9

9:                                                ; preds = %2
  %10 = getelementptr inbounds i8, ptr %0, i64 408
  %11 = sext i32 %7 to i64
  tail call void @_ZN3gmx12PaddedVectorINS_11BasicVectorIfEENS_9AllocatorIS2_NS_20HostAllocationPolicyEEEE17resizeWithPaddingEl(ptr noundef nonnull align 8 dereferenceable(40) %10, i64 noundef %11)
  %.pre.i.i = load i32, ptr %3, align 4
  br label %12

12:                                               ; preds = %9, %2
  %13 = phi i32 [ %.pre.i.i, %9 ], [ %6, %2 ]
  %14 = and i32 %13, 256
  %.not4.i.i = icmp eq i32 %14, 0
  br i1 %.not4.i.i, label %18, label %15

15:                                               ; preds = %12
  %16 = getelementptr inbounds i8, ptr %0, i64 448
  %17 = sext i32 %7 to i64
  tail call void @_ZN3gmx12PaddedVectorINS_11BasicVectorIfEENS_9AllocatorIS2_NS_20HostAllocationPolicyEEEE17resizeWithPaddingEl(ptr noundef nonnull align 8 dereferenceable(40) %16, i64 noundef %17)
  %.pre6.i.i = load i32, ptr %3, align 4
  br label %18

18:                                               ; preds = %15, %12
  %19 = phi i32 [ %.pre6.i.i, %15 ], [ %13, %12 ]
  %20 = and i32 %19, 1024
  %.not5.i.i = icmp eq i32 %20, 0
  br i1 %.not5.i.i, label %_ZN7t_state8setFlagsEi.exit, label %21

21:                                               ; preds = %18
  %22 = getelementptr inbounds i8, ptr %0, i64 488
  %23 = sext i32 %7 to i64
  tail call void @_ZN3gmx12PaddedVectorINS_11BasicVectorIfEENS_9AllocatorIS2_NS_20HostAllocationPolicyEEEE17resizeWithPaddingEl(ptr noundef nonnull align 8 dereferenceable(40) %22, i64 noundef %23)
  br label %_ZN7t_state8setFlagsEi.exit

_ZN7t_state8setFlagsEi.exit:                      ; preds = %18, %21
  ret void
}